; Function Attrs: mustprogress nounwind uwtable
define dso_local void @_ZN4llvm26OptimizationRemarkAnalysisC2EPKcNS_9StringRefERKNS_18DiagnosticLocationEPKNS_5ValueE(ptr noundef nonnull align 8 dereferenceable(432) initializes((0, 13), (16, 64), (72, 73)) %0, ptr noundef %1, ptr %2, i64 %3, ptr noundef nonnull readonly align 8 captures(none) dereferenceable(16) %4, ptr noundef %5) unnamed_addr #1 align 2 {
  %7 = getelementptr inbounds nuw i8, ptr %5, i64 72
  %8 = load ptr, ptr %7, align 8
  %9 = getelementptr inbounds nuw i8, ptr %0, i64 8
  store i32 11, ptr %9, align 8
  %10 = getelementptr inbounds nuw i8, ptr %0, i64 12
  store i8 2, ptr %10, align 4
  store ptr getelementptr inbounds nuw inrange(-16, 32) (i8, ptr @_ZTVN4llvm30DiagnosticInfoWithLocationBaseE, i64 16), ptr %0, align 8
  %11 = getelementptr inbounds nuw i8, ptr %0, i64 16
  store ptr %8, ptr %11, align 8
  %12 = getelementptr inbounds nuw i8, ptr %0, i64 24
  tail call void @llvm.memcpy.p0.p0.i64(ptr noundef nonnull align 8 dereferenceable(16) %12, ptr noundef nonnull align 8 dereferenceable(16) %4, i64 16, i1 false)
  store ptr getelementptr inbounds nuw inrange(-16, 40) (i8, ptr @_ZTVN4llvm30DiagnosticInfoOptimizationBaseE, i64 16), ptr %0, align 8
  %13 = getelementptr inbounds nuw i8, ptr %0, i64 40
  store ptr %1, ptr %13, align 8
  %14 = getelementptr inbounds nuw i8, ptr %0, i64 48
  store ptr %2, ptr %14, align 8
  %.sroa.2.0..sroa_idx.i.i = getelementptr inbounds nuw i8, ptr %0, i64 56
  store i64 %3, ptr %.sroa.2.0..sroa_idx.i.i, align 8
  %15 = getelementptr inbounds nuw i8, ptr %0, i64 72
  store i8 0, ptr %15, align 8
  %16 = getelementptr inbounds nuw i8, ptr %0, i64 80
  %17 = getelementptr inbounds nuw i8, ptr %0, i64 96
  tail call void @_ZN4llvm15SmallVectorBaseIjEC2EPvm(ptr noundef nonnull align 8 dereferenceable(336) %16, ptr noundef nonnull %17, i64 noundef 4) #16
  %18 = getelementptr inbounds nuw i8, ptr %0, i64 416
  store i8 0, ptr %18, align 8
  %19 = getelementptr inbounds nuw i8, ptr %0, i64 420
  store i32 -1, ptr %19, align 4
  %20 = getelementptr inbounds nuw i8, ptr %0, i64 424
  store ptr %5, ptr %20, align 8
  store ptr getelementptr inbounds nuw inrange(-16, 40) (i8, ptr @_ZTVN4llvm26OptimizationRemarkAnalysisE, i64 16), ptr %0, align 8
  ret void
}